target datalayout = "e-m:e-p270:32:32-p271:32:32-p272:64:64-i64:64-i128:128-f80:128-n8:16:32:64-S128"
target triple = "x86_64-pc-linux-gnu"

%"class.std::__1::chrono::day" = type { i8 }
%"class.std::__1::chrono::month" = type { i8 }
%"class.std::__1::chrono::year" = type { i16 }
%"class.std::__1::__variant_detail::__base.17" = type { %"union.std::__1::__variant_detail::__union.18", i32 }
%"union.std::__1::__variant_detail::__union.18" = type { %"union.std::__1::__variant_detail::__union.20" }
%"union.std::__1::__variant_detail::__union.20" = type { %"union.std::__1::__variant_detail::__union.22" }
%"union.std::__1::__variant_detail::__union.22" = type { %"struct.std::__1::__variant_detail::__alt.23" }
%"struct.std::__1::__variant_detail::__alt.23" = type { %"struct.std::__1::chrono::__tz::__constrained_weekday" }
%"struct.std::__1::chrono::__tz::__constrained_weekday" = type <{ %"class.std::__1::chrono::weekday", [3 x i8], i32, %"class.std::__1::chrono::day", [3 x i8] }>
%"class.std::__1::chrono::weekday" = type { i8 }
%"class.std::__1::chrono::year_month_day" = type { %"class.std::__1::chrono::year", %"class.std::__1::chrono::month", %"class.std::__1::chrono::day" }
%class.anon.37 = type { ptr, ptr }
%"struct.std::__1::__variant_detail::__visitation::__variant::__value_visitor.38" = type { ptr }

; Function Attrs: inlinehint mustprogress uwtable
define internal i32 @"_ZZNSt3__16chronoL19__to_year_month_dayB8ne210000ENS0_4yearENS0_5monthENS_7variantIJNS0_3dayENS0_12weekday_lastENS0_4__tz21__constrained_weekdayEEEEENK3$_0clB8ne210000IS7_EEDaRKT_"(ptr noundef nonnull align 8 dereferenceable(16) %0, ptr noundef nonnull align 4 dereferenceable(9) %1) #1 align 2 {
  %3 = alloca %"class.std::__1::chrono::year_month_day", align 2
  %4 = alloca ptr, align 8
  %5 = alloca ptr, align 8
  %6 = alloca %"class.std::__1::chrono::year", align 2
  %7 = alloca %"class.std::__1::chrono::month", align 1
  store ptr %0, ptr %4, align 8, !tbaa !104
  store ptr %1, ptr %5, align 8, !tbaa !259
  %8 = load ptr, ptr %4, align 8
  %9 = load ptr, ptr %5, align 8, !tbaa !259
  %10 = getelementptr inbounds nuw %class.anon.37, ptr %8, i32 0, i32 0
  %11 = load ptr, ptr %10, align 8, !tbaa !222
  call void @llvm.memcpy.p0.p0.i64(ptr align 2 %6, ptr align 2 %11, i64 2, i1 false), !tbaa.struct !167
  %12 = getelementptr inbounds nuw %class.anon.37, ptr %8, i32 0, i32 1
  %13 = load ptr, ptr %12, align 8, !tbaa !224
  call void @llvm.memcpy.p0.p0.i64(ptr align 1 %7, ptr align 1 %13, i64 1, i1 false), !tbaa.struct !170
  %14 = getelementptr inbounds nuw %"class.std::__1::chrono::year", ptr %6, i32 0, i32 0
  %15 = load i16, ptr %14, align 2
  %16 = getelementptr inbounds nuw %"class.std::__1::chrono::month", ptr %7, i32 0, i32 0
  %17 = load i8, ptr %16, align 1
  %18 = call i32 @_ZNKSt3__16chrono4__tz21__constrained_weekdayclB8ne210000ENS0_4yearENS0_5monthE(ptr noundef nonnull align 4 dereferenceable(9) %9, i16 %15, i8 %17)
  store i32 %18, ptr %3, align 2
  %19 = load i32, ptr %3, align 2
  ret i32 %19
}

; Function Attrs: mustprogress nounwind uwtable
define linkonce_odr hidden noundef nonnull align 4 dereferenceable(12) ptr @_ZNSt3__116__variant_detail8__access7__union9__get_altB8ne210000IRNS0_7__unionILNS0_6_TraitE0ELm2EJNS_6chrono4__tz21__constrained_weekdayEEEEEEODaOT_NS_16in_place_index_tILm0EEE(ptr noundef nonnull align 4 dereferenceable(12) %0) #4 comdat align 2 {
  %2 = alloca ptr, align 8
  store ptr %0, ptr %2, align 8, !tbaa !264
  %3 = load ptr, ptr %2, align 8, !tbaa !264
  ret ptr %3
}

; Function Attrs: inlinehint mustprogress uwtable
define internal i32 @"_ZNSt3__18__invokeB8ne210000IZNS_6chronoL19__to_year_month_dayB8ne210000ENS1_4yearENS1_5monthENS_7variantIJNS1_3dayENS1_12weekday_lastENS1_4__tz21__constrained_weekdayEEEEE3$_0JRS8_EEEDTclclsr3stdE7declvalIT_EEspclsr3stdE7declvalIT0_EEEEOSC_DpOSD_"(ptr noundef nonnull align 8 dereferenceable(16) %0, ptr noundef nonnull align 4 dereferenceable(9) %1) #1 {
  %3 = alloca %"class.std::__1::chrono::year_month_day", align 2
  %4 = alloca ptr, align 8
  %5 = alloca ptr, align 8
  store ptr %0, ptr %4, align 8, !tbaa !104
  store ptr %1, ptr %5, align 8, !tbaa !259
  %6 = load ptr, ptr %4, align 8, !tbaa !104
  %7 = load ptr, ptr %5, align 8, !tbaa !259
  %8 = call i32 @"_ZZNSt3__16chronoL19__to_year_month_dayB8ne210000ENS0_4yearENS0_5monthENS_7variantIJNS0_3dayENS0_12weekday_lastENS0_4__tz21__constrained_weekdayEEEEENK3$_0clB8ne210000IS7_EEDaRKT_"(ptr noundef nonnull align 8 dereferenceable(16) %6, ptr noundef nonnull align 4 dereferenceable(9) %7)
  store i32 %8, ptr %3, align 2
  %9 = load i32, ptr %3, align 2
  ret i32 %9
}

; Function Attrs: mustprogress nounwind uwtable
define internal void @"_ZNSt3__116__variant_detail12__visitation9__variant36__std_visit_exhaustive_visitor_checkB8ne210000IZNS_6chronoL19__to_year_month_dayB8ne210000ENS4_4yearENS4_5monthENS_7variantIJNS4_3dayENS4_12weekday_lastENS4_4__tz21__constrained_weekdayEEEEE3$_0JRSB_EEEvv"() #4 align 2 {
  ret void
}

; Function Attrs: mustprogress uwtable
define linkonce_odr hidden noundef nonnull align 4 dereferenceable(12) ptr @_ZNSt3__116__variant_detail8__access7__union9__get_altB8ne210000IRNS0_7__unionILNS0_6_TraitE0ELm1EJNS_6chrono12weekday_lastENS6_4__tz21__constrained_weekdayEEEELm1EEEODaOT_NS_16in_place_index_tIXT0_EEE(ptr noundef nonnull align 4 dereferenceable(12) %0) #0 comdat align 2 {
  %2 = alloca ptr, align 8
  store ptr %0, ptr %2, align 8, !tbaa !255
  %3 = load ptr, ptr %2, align 8, !tbaa !255
  %4 = call noundef nonnull align 4 dereferenceable(12) ptr @_ZNSt3__116__variant_detail8__access7__union9__get_altB8ne210000IRNS0_7__unionILNS0_6_TraitE0ELm2EJNS_6chrono4__tz21__constrained_weekdayEEEEEEODaOT_NS_16in_place_index_tILm0EEE(ptr noundef nonnull align 4 dereferenceable(12) %3)
  ret ptr %4
}

; Function Attrs: mustprogress uwtable
define internal i32 @"_ZNKSt3__116__variant_detail12__visitation9__variant15__value_visitorIZNS_6chronoL19__to_year_month_dayB8ne210000ENS4_4yearENS4_5monthENS_7variantIJNS4_3dayENS4_12weekday_lastENS4_4__tz21__constrained_weekdayEEEEE3$_0EclB8ne210000IJRNS0_5__altILm2ESB_EEEEEDcDpOT_"(ptr noundef nonnull align 8 dereferenceable(8) %0, ptr noundef nonnull align 4 dereferenceable(12) %1) #0 align 2 {
  %3 = alloca %"class.std::__1::chrono::year_month_day", align 2
  %4 = alloca ptr, align 8
  %5 = alloca ptr, align 8
  store ptr %0, ptr %4, align 8, !tbaa !210
  store ptr %1, ptr %5, align 8, !tbaa !257
  %6 = load ptr, ptr %4, align 8
  call void @"_ZNSt3__116__variant_detail12__visitation9__variant36__std_visit_exhaustive_visitor_checkB8ne210000IZNS_6chronoL19__to_year_month_dayB8ne210000ENS4_4yearENS4_5monthENS_7variantIJNS4_3dayENS4_12weekday_lastENS4_4__tz21__constrained_weekdayEEEEE3$_0JRSB_EEEvv"()
  %7 = getelementptr inbounds nuw %"struct.std::__1::__variant_detail::__visitation::__variant::__value_visitor.38", ptr %6, i32 0, i32 0
  %8 = load ptr, ptr %7, align 8, !tbaa !218
  %9 = load ptr, ptr %5, align 8, !tbaa !257
  %10 = getelementptr inbounds nuw %"struct.std::__1::__variant_detail::__alt.23", ptr %9, i32 0, i32 0
  %11 = call i32 @"_ZNSt3__18__invokeB8ne210000IZNS_6chronoL19__to_year_month_dayB8ne210000ENS1_4yearENS1_5monthENS_7variantIJNS1_3dayENS1_12weekday_lastENS1_4__tz21__constrained_weekdayEEEEE3$_0JRS8_EEEDTclclsr3stdE7declvalIT_EEspclsr3stdE7declvalIT0_EEEEOSC_DpOSD_"(ptr noundef nonnull align 8 dereferenceable(16) %8, ptr noundef nonnull align 4 dereferenceable(9) %10)
  store i32 %11, ptr %3, align 2
  %12 = load i32, ptr %3, align 2
  ret i32 %12
}

; Function Attrs: mustprogress uwtable
define linkonce_odr hidden noundef nonnull align 4 dereferenceable(12) ptr @_ZNSt3__116__variant_detail8__access7__union9__get_altB8ne210000IRNS0_7__unionILNS0_6_TraitE0ELm0EJNS_6chrono3dayENS6_12weekday_lastENS6_4__tz21__constrained_weekdayEEEELm2EEEODaOT_NS_16in_place_index_tIXT0_EEE(ptr noundef nonnull align 4 dereferenceable(12) %0) #0 comdat align 2 {
  %2 = alloca ptr, align 8
  store ptr %0, ptr %2, align 8, !tbaa !227
  %3 = load ptr, ptr %2, align 8, !tbaa !227
  %4 = call noundef nonnull align 4 dereferenceable(12) ptr @_ZNSt3__116__variant_detail8__access7__union9__get_altB8ne210000IRNS0_7__unionILNS0_6_TraitE0ELm1EJNS_6chrono12weekday_lastENS6_4__tz21__constrained_weekdayEEEELm1EEEODaOT_NS_16in_place_index_tIXT0_EEE(ptr noundef nonnull align 4 dereferenceable(12) %3)
  ret ptr %4
}

; Function Attrs: inlinehint mustprogress uwtable
define internal i32 @"_ZNSt3__18__invokeB8ne210000INS_16__variant_detail12__visitation9__variant15__value_visitorIZNS_6chronoL19__to_year_month_dayB8ne210000ENS5_4yearENS5_5monthENS_7variantIJNS5_3dayENS5_12weekday_lastENS5_4__tz21__constrained_weekdayEEEEE3$_0EEJRNS1_5__altILm2ESC_EEEEEDTclclsr3stdE7declvalIT_EEspclsr3stdE7declvalIT0_EEEEOSJ_DpOSK_"(ptr noundef nonnull align 8 dereferenceable(8) %0, ptr noundef nonnull align 4 dereferenceable(12) %1) #1 {
  %3 = alloca %"class.std::__1::chrono::year_month_day", align 2
  %4 = alloca ptr, align 8
  %5 = alloca ptr, align 8
  store ptr %0, ptr %4, align 8, !tbaa !210
  store ptr %1, ptr %5, align 8, !tbaa !257
  %6 = load ptr, ptr %4, align 8, !tbaa !210
  %7 = load ptr, ptr %5, align 8, !tbaa !257
  %8 = call i32 @"_ZNKSt3__116__variant_detail12__visitation9__variant15__value_visitorIZNS_6chronoL19__to_year_month_dayB8ne210000ENS4_4yearENS4_5monthENS_7variantIJNS4_3dayENS4_12weekday_lastENS4_4__tz21__constrained_weekdayEEEEE3$_0EclB8ne210000IJRNS0_5__altILm2ESB_EEEEEDcDpOT_"(ptr noundef nonnull align 8 dereferenceable(8) %6, ptr noundef nonnull align 4 dereferenceable(12) %7)
  store i32 %8, ptr %3, align 2
  %9 = load i32, ptr %3, align 2
  ret i32 %9
}

; Function Attrs: mustprogress uwtable
define linkonce_odr hidden noundef nonnull align 4 dereferenceable(12) ptr @_ZNSt3__116__variant_detail8__access6__base9__get_altB8ne210000ILm2ERNS0_6__baseILNS0_6_TraitE0EJNS_6chrono3dayENS6_12weekday_lastENS6_4__tz21__constrained_weekdayEEEEEEODaOT0_(ptr noundef nonnull align 4 dereferenceable(16) %0) #0 comdat align 2 {
  %2 = alloca ptr, align 8
  store ptr %0, ptr %2, align 8, !tbaa !207
  %3 = load ptr, ptr %2, align 8, !tbaa !207
  %4 = getelementptr inbounds nuw %"class.std::__1::__variant_detail::__base.17", ptr %3, i32 0, i32 0
  %5 = call noundef nonnull align 4 dereferenceable(12) ptr @_ZNSt3__116__variant_detail8__access7__union9__get_altB8ne210000IRNS0_7__unionILNS0_6_TraitE0ELm0EJNS_6chrono3dayENS6_12weekday_lastENS6_4__tz21__constrained_weekdayEEEELm2EEEODaOT_NS_16in_place_index_tIXT0_EEE(ptr noundef nonnull align 4 dereferenceable(12) %4)
  ret ptr %5
}

; Function Attrs: mustprogress uwtable
define internal i32 @"_ZNSt3__116__variant_detail12__visitation6__base12__dispatcherIJLm2EEE10__dispatchB8ne210000IONS1_9__variant15__value_visitorIZNS_6chronoL19__to_year_month_dayB8ne210000ENS8_4yearENS8_5monthENS_7variantIJNS8_3dayENS8_12weekday_lastENS8_4__tz21__constrained_weekdayEEEEE3$_0EEJRNS0_6__baseILNS0_6_TraitE0EJSC_SD_SF_EEEEEEDcT_DpT0_"(ptr noundef nonnull align 8 dereferenceable(8) %0, ptr noundef nonnull align 4 dereferenceable(16) %1) #0 align 2 {
  %3 = alloca %"class.std::__1::chrono::year_month_day", align 2
  %4 = alloca ptr, align 8
  %5 = alloca ptr, align 8
  store ptr %0, ptr %4, align 8, !tbaa !210
  store ptr %1, ptr %5, align 8, !tbaa !207
  %6 = load ptr, ptr %4, align 8, !tbaa !210
  %7 = load ptr, ptr %5, align 8, !tbaa !207
  %8 = call noundef nonnull align 4 dereferenceable(12) ptr @_ZNSt3__116__variant_detail8__access6__base9__get_altB8ne210000ILm2ERNS0_6__baseILNS0_6_TraitE0EJNS_6chrono3dayENS6_12weekday_lastENS6_4__tz21__constrained_weekdayEEEEEEODaOT0_(ptr noundef nonnull align 4 dereferenceable(16) %7)
  %9 = call i32 @"_ZNSt3__18__invokeB8ne210000INS_16__variant_detail12__visitation9__variant15__value_visitorIZNS_6chronoL19__to_year_month_dayB8ne210000ENS5_4yearENS5_5monthENS_7variantIJNS5_3dayENS5_12weekday_lastENS5_4__tz21__constrained_weekdayEEEEE3$_0EEJRNS1_5__altILm2ESC_EEEEEDTclclsr3stdE7declvalIT_EEspclsr3stdE7declvalIT0_EEEEOSJ_DpOSK_"(ptr noundef nonnull align 8 dereferenceable(8) %6, ptr noundef nonnull align 4 dereferenceable(12) %8)
  store i32 %9, ptr %3, align 2
  %10 = load i32, ptr %3, align 2
  ret i32 %10
}