; Function Attrs: mustprogress uwtable
define internal i32 @"_ZNSt3__116__variant_detail12__visitation6__base12__dispatcherIJLm2EEE10__dispatchB8ne210000IONS1_9__variant15__value_visitorIZNS_6chronoL19__to_year_month_dayB8ne210000ENS8_4yearENS8_5monthENS_7variantIJNS8_3dayENS8_12weekday_lastENS8_4__tz21__constrained_weekdayEEEEE3$_0EEJRNS0_6__baseILNS0_6_TraitE0EJSC_SD_SF_EEEEEEDcT_DpT0_"(ptr noundef nonnull readonly align 8 captures(none) dereferenceable(8) %0, ptr noundef nonnull align 4 dereferenceable(16) %1) #5 align 2 {
  %.val = load ptr, ptr %0, align 8, !tbaa !279
  %.val.val = load ptr, ptr %.val, align 8, !tbaa !281
  %3 = getelementptr i8, ptr %.val, i64 8
  %.val.val2 = load ptr, ptr %3, align 8, !tbaa !283
  %.val.val.val = load i16, ptr %.val.val, align 2, !tbaa !153
  %.val.val2.val = load i8, ptr %.val.val2, align 1, !tbaa !17
  %4 = tail call i32 @_ZNKSt3__16chrono4__tz21__constrained_weekdayclB8ne210000ENS0_4yearENS0_5monthE(ptr noundef nonnull align 4 dereferenceable(12) %1, i16 %.val.val.val, i8 %.val.val2.val)
  ret i32 %4
}